target datalayout = "e-m:e-p270:32:32-p271:32:32-p272:64:64-i64:64-i128:128-f80:128-n8:16:32:64-S128"
target triple = "x86_64-pc-linux-gnu"

@_ZN6icu_77L11MONTHLENGTHE = internal constant [12 x i32] [i32 31, i32 28, i32 31, i32 30, i32 31, i32 30, i32 31, i32 31, i32 30, i32 31, i32 30, i32 31], align 16

; Function Attrs: mustprogress uwtable
define internal noundef signext i8 @_ZN6icu_77L20isEquivalentDateRuleEiiiPKNS_12DateTimeRuleE(i32 noundef %0, i32 noundef %1, i32 noundef %2, ptr noundef %3) #1 {
  %5 = alloca i8, align 1
  %6 = alloca i32, align 4
  %7 = alloca i32, align 4
  %8 = alloca i32, align 4
  %9 = alloca ptr, align 8
  %10 = alloca i32, align 4
  %11 = alloca i32, align 4
  store i32 %0, ptr %6, align 4, !tbaa !18
  store i32 %1, ptr %7, align 4, !tbaa !18
  store i32 %2, ptr %8, align 4, !tbaa !18
  store ptr %3, ptr %9, align 8, !tbaa !106
  %12 = load i32, ptr %6, align 4, !tbaa !18
  %13 = load ptr, ptr %9, align 8, !tbaa !106
  %14 = call noundef i32 @_ZNK6icu_7712DateTimeRule12getRuleMonthEv(ptr noundef nonnull align 8 dereferenceable(36) %13)
  %15 = icmp ne i32 %12, %14
  br i1 %15, label %21, label %16

16:                                               ; preds = %4
  %17 = load i32, ptr %8, align 4, !tbaa !18
  %18 = load ptr, ptr %9, align 8, !tbaa !106
  %19 = call noundef i32 @_ZNK6icu_7712DateTimeRule16getRuleDayOfWeekEv(ptr noundef nonnull align 8 dereferenceable(36) %18)
  %20 = icmp ne i32 %17, %19
  br i1 %20, label %21, label %22

21:                                               ; preds = %16, %4
  store i8 0, ptr %5, align 1
  br label %122

22:                                               ; preds = %16
  %23 = load ptr, ptr %9, align 8, !tbaa !106
  %24 = call noundef i32 @_ZNK6icu_7712DateTimeRule15getTimeRuleTypeEv(ptr noundef nonnull align 8 dereferenceable(36) %23)
  %25 = icmp ne i32 %24, 0
  br i1 %25, label %26, label %27

26:                                               ; preds = %22
  store i8 0, ptr %5, align 1
  br label %122

27:                                               ; preds = %22
  %28 = load ptr, ptr %9, align 8, !tbaa !106
  %29 = call noundef i32 @_ZNK6icu_7712DateTimeRule15getDateRuleTypeEv(ptr noundef nonnull align 8 dereferenceable(36) %28)
  %30 = icmp eq i32 %29, 1
  br i1 %30, label %31, label %37

31:                                               ; preds = %27
  %32 = load ptr, ptr %9, align 8, !tbaa !106
  %33 = call noundef i32 @_ZNK6icu_7712DateTimeRule18getRuleWeekInMonthEv(ptr noundef nonnull align 8 dereferenceable(36) %32)
  %34 = load i32, ptr %7, align 4, !tbaa !18
  %35 = icmp eq i32 %33, %34
  br i1 %35, label %36, label %37

36:                                               ; preds = %31
  store i8 1, ptr %5, align 1
  br label %122

37:                                               ; preds = %31, %27
  call void @llvm.lifetime.start.p0(i64 4, ptr %10) #11
  %38 = load ptr, ptr %9, align 8, !tbaa !106
  %39 = call noundef i32 @_ZNK6icu_7712DateTimeRule17getRuleDayOfMonthEv(ptr noundef nonnull align 8 dereferenceable(36) %38)
  store i32 %39, ptr %10, align 4, !tbaa !18
  %40 = load ptr, ptr %9, align 8, !tbaa !106
  %41 = call noundef i32 @_ZNK6icu_7712DateTimeRule15getDateRuleTypeEv(ptr noundef nonnull align 8 dereferenceable(36) %40)
  %42 = icmp eq i32 %41, 2
  br i1 %42, label %43, label %80

43:                                               ; preds = %37
  %44 = load i32, ptr %10, align 4, !tbaa !18
  %45 = srem i32 %44, 7
  %46 = icmp eq i32 %45, 1
  br i1 %46, label %47, label %54

47:                                               ; preds = %43
  %48 = load i32, ptr %10, align 4, !tbaa !18
  %49 = add nsw i32 %48, 6
  %50 = sdiv i32 %49, 7
  %51 = load i32, ptr %7, align 4, !tbaa !18
  %52 = icmp eq i32 %50, %51
  br i1 %52, label %53, label %54

53:                                               ; preds = %47
  store i8 1, ptr %5, align 1
  store i32 1, ptr %11, align 4
  br label %121

54:                                               ; preds = %47, %43
  %55 = load i32, ptr %6, align 4, !tbaa !18
  %56 = icmp ne i32 %55, 1
  br i1 %56, label %57, label %79

57:                                               ; preds = %54
  %58 = load i32, ptr %6, align 4, !tbaa !18
  %59 = sext i32 %58 to i64
  %60 = getelementptr inbounds [12 x i32], ptr @_ZN6icu_77L11MONTHLENGTHE, i64 0, i64 %59
  %61 = load i32, ptr %60, align 4, !tbaa !18
  %62 = load i32, ptr %10, align 4, !tbaa !18
  %63 = sub nsw i32 %61, %62
  %64 = srem i32 %63, 7
  %65 = icmp eq i32 %64, 6
  br i1 %65, label %66, label %79

66:                                               ; preds = %57
  %67 = load i32, ptr %7, align 4, !tbaa !18
  %68 = load i32, ptr %6, align 4, !tbaa !18
  %69 = sext i32 %68 to i64
  %70 = getelementptr inbounds [12 x i32], ptr @_ZN6icu_77L11MONTHLENGTHE, i64 0, i64 %69
  %71 = load i32, ptr %70, align 4, !tbaa !18
  %72 = load i32, ptr %10, align 4, !tbaa !18
  %73 = sub nsw i32 %71, %72
  %74 = add nsw i32 %73, 1
  %75 = sdiv i32 %74, 7
  %76 = mul nsw i32 -1, %75
  %77 = icmp eq i32 %67, %76
  br i1 %77, label %78, label %79

78:                                               ; preds = %66
  store i8 1, ptr %5, align 1
  store i32 1, ptr %11, align 4
  br label %121

79:                                               ; preds = %66, %57, %54
  br label %80

80:                                               ; preds = %79, %37
  %81 = load ptr, ptr %9, align 8, !tbaa !106
  %82 = call noundef i32 @_ZNK6icu_7712DateTimeRule15getDateRuleTypeEv(ptr noundef nonnull align 8 dereferenceable(36) %81)
  %83 = icmp eq i32 %82, 3
  br i1 %83, label %84, label %120

84:                                               ; preds = %80
  %85 = load i32, ptr %10, align 4, !tbaa !18
  %86 = srem i32 %85, 7
  %87 = icmp eq i32 %86, 0
  br i1 %87, label %88, label %94

88:                                               ; preds = %84
  %89 = load i32, ptr %10, align 4, !tbaa !18
  %90 = sdiv i32 %89, 7
  %91 = load i32, ptr %7, align 4, !tbaa !18
  %92 = icmp eq i32 %90, %91
  br i1 %92, label %93, label %94

93:                                               ; preds = %88
  store i8 1, ptr %5, align 1
  store i32 1, ptr %11, align 4
  br label %121

94:                                               ; preds = %88, %84
  %95 = load i32, ptr %6, align 4, !tbaa !18
  %96 = icmp ne i32 %95, 1
  br i1 %96, label %97, label %119

97:                                               ; preds = %94
  %98 = load i32, ptr %6, align 4, !tbaa !18
  %99 = sext i32 %98 to i64
  %100 = getelementptr inbounds [12 x i32], ptr @_ZN6icu_77L11MONTHLENGTHE, i64 0, i64 %99
  %101 = load i32, ptr %100, align 4, !tbaa !18
  %102 = load i32, ptr %10, align 4, !tbaa !18
  %103 = sub nsw i32 %101, %102
  %104 = srem i32 %103, 7
  %105 = icmp eq i32 %104, 0
  br i1 %105, label %106, label %119

106:                                              ; preds = %97
  %107 = load i32, ptr %7, align 4, !tbaa !18
  %108 = load i32, ptr %6, align 4, !tbaa !18
  %109 = sext i32 %108 to i64
  %110 = getelementptr inbounds [12 x i32], ptr @_ZN6icu_77L11MONTHLENGTHE, i64 0, i64 %109
  %111 = load i32, ptr %110, align 4, !tbaa !18
  %112 = load i32, ptr %10, align 4, !tbaa !18
  %113 = sub nsw i32 %111, %112
  %114 = sdiv i32 %113, 7
  %115 = add nsw i32 %114, 1
  %116 = mul nsw i32 -1, %115
  %117 = icmp eq i32 %107, %116
  br i1 %117, label %118, label %119

118:                                              ; preds = %106
  store i8 1, ptr %5, align 1
  store i32 1, ptr %11, align 4
  br label %121

119:                                              ; preds = %106, %97, %94
  br label %120

120:                                              ; preds = %119, %80
  store i8 0, ptr %5, align 1
  store i32 1, ptr %11, align 4
  br label %121

121:                                              ; preds = %120, %118, %93, %78, %53
  call void @llvm.lifetime.end.p0(i64 4, ptr %10) #11
  br label %122

122:                                              ; preds = %121, %36, %26, %21
  %123 = load i8, ptr %5, align 1
  ret i8 %123
}