; Function Attrs: mustprogress uwtable
define internal fastcc noundef signext range(i8 0, 2) i8 @_ZN6icu_77L20isEquivalentDateRuleEiiiPKNS_12DateTimeRuleE(i32 noundef range(i32 -128, 128) %0, i32 noundef %1, i32 noundef range(i32 -128, 128) %2, ptr noundef nonnull %3) unnamed_addr #2 {
  %5 = tail call noundef i32 @_ZNK6icu_7712DateTimeRule12getRuleMonthEv(ptr noundef nonnull align 8 dereferenceable(36) %3)
  %.not = icmp eq i32 %0, %5
  br i1 %.not, label %6, label %58

6:                                                ; preds = %4
  %7 = tail call noundef i32 @_ZNK6icu_7712DateTimeRule16getRuleDayOfWeekEv(ptr noundef nonnull align 8 dereferenceable(36) %3)
  %.not30 = icmp eq i32 %2, %7
  br i1 %.not30, label %8, label %58

8:                                                ; preds = %6
  %9 = tail call noundef i32 @_ZNK6icu_7712DateTimeRule15getTimeRuleTypeEv(ptr noundef nonnull align 8 dereferenceable(36) %3)
  %.not31 = icmp eq i32 %9, 0
  br i1 %.not31, label %10, label %58

10:                                               ; preds = %8
  %11 = tail call noundef i32 @_ZNK6icu_7712DateTimeRule15getDateRuleTypeEv(ptr noundef nonnull align 8 dereferenceable(36) %3)
  %12 = icmp eq i32 %11, 1
  br i1 %12, label %13, label %16

13:                                               ; preds = %10
  %14 = tail call noundef i32 @_ZNK6icu_7712DateTimeRule18getRuleWeekInMonthEv(ptr noundef nonnull align 8 dereferenceable(36) %3)
  %15 = icmp eq i32 %14, %1
  br i1 %15, label %58, label %16

16:                                               ; preds = %13, %10
  %17 = tail call noundef i32 @_ZNK6icu_7712DateTimeRule17getRuleDayOfMonthEv(ptr noundef nonnull align 8 dereferenceable(36) %3)
  %18 = tail call noundef i32 @_ZNK6icu_7712DateTimeRule15getDateRuleTypeEv(ptr noundef nonnull align 8 dereferenceable(36) %3)
  %19 = icmp eq i32 %18, 2
  br i1 %19, label %20, label %38

20:                                               ; preds = %16
  %21 = srem i32 %17, 7
  %22 = icmp eq i32 %21, 1
  br i1 %22, label %23, label %27

23:                                               ; preds = %20
  %24 = add nsw i32 %17, 6
  %25 = sdiv i32 %24, 7
  %26 = icmp eq i32 %25, %1
  br i1 %26, label %58, label %27

27:                                               ; preds = %23, %20
  %.not32 = icmp eq i32 %0, 1
  br i1 %.not32, label %38, label %28

28:                                               ; preds = %27
  %29 = sext i32 %0 to i64
  %30 = getelementptr inbounds [12 x i32], ptr @_ZN6icu_77L11MONTHLENGTHE, i64 0, i64 %29
  %31 = load i32, ptr %30, align 4, !tbaa !42
  %32 = sub nsw i32 %31, %17
  %33 = srem i32 %32, 7
  %34 = icmp eq i32 %33, 6
  br i1 %34, label %35, label %38

35:                                               ; preds = %28
  %36 = add nsw i32 %32, 1
  %.neg = sdiv i32 %36, -7
  %37 = icmp eq i32 %1, %.neg
  br i1 %37, label %58, label %38

38:                                               ; preds = %27, %28, %35, %16
  %39 = tail call noundef i32 @_ZNK6icu_7712DateTimeRule15getDateRuleTypeEv(ptr noundef nonnull align 8 dereferenceable(36) %3)
  %40 = icmp eq i32 %39, 3
  br i1 %40, label %41, label %57

41:                                               ; preds = %38
  %42 = srem i32 %17, 7
  %43 = icmp eq i32 %42, 0
  %44 = sdiv i32 %17, 7
  %45 = icmp eq i32 %44, %1
  %or.cond = and i1 %43, %45
  br i1 %or.cond, label %58, label %46

46:                                               ; preds = %41
  %.not33 = icmp eq i32 %0, 1
  br i1 %.not33, label %57, label %47

47:                                               ; preds = %46
  %48 = sext i32 %0 to i64
  %49 = getelementptr inbounds [12 x i32], ptr @_ZN6icu_77L11MONTHLENGTHE, i64 0, i64 %48
  %50 = load i32, ptr %49, align 4, !tbaa !42
  %51 = sub nsw i32 %50, %17
  %52 = srem i32 %51, 7
  %53 = icmp eq i32 %52, 0
  br i1 %53, label %54, label %57

54:                                               ; preds = %47
  %.neg34 = sdiv i32 %51, -7
  %55 = add nsw i32 %.neg34, -1
  %56 = icmp eq i32 %1, %55
  br i1 %56, label %58, label %57

57:                                               ; preds = %46, %47, %54, %38
  br label %58

58:                                               ; preds = %57, %23, %35, %41, %54, %13, %8, %4, %6
  %.0 = phi i8 [ 0, %6 ], [ 0, %4 ], [ 0, %8 ], [ 1, %13 ], [ 0, %57 ], [ 1, %23 ], [ 1, %35 ], [ 1, %41 ], [ 1, %54 ]
  ret i8 %.0
}